target datalayout = "e-m:e-p270:32:32-p271:32:32-p272:64:64-i64:64-i128:128-f80:128-n8:16:32:64-S128"
target triple = "x86_64-pc-linux-gnu"

%struct.bn_mont_ctx_st = type { i32, %struct.bignum_st, %struct.bignum_st, %struct.bignum_st, [2 x i64], i32 }
%struct.bignum_st = type { ptr, i32, i32, i32, i32 }

; Function Attrs: nounwind uwtable
define i32 @ossl_bn_mont_ctx_eq(ptr noundef %0, ptr noundef %1) #0 {
  %3 = alloca i32, align 4
  %4 = alloca ptr, align 8
  %5 = alloca ptr, align 8
  store ptr %0, ptr %4, align 8, !tbaa !8
  store ptr %1, ptr %5, align 8, !tbaa !8
  %6 = load ptr, ptr %4, align 8, !tbaa !8
  %7 = getelementptr inbounds nuw %struct.bn_mont_ctx_st, ptr %6, i32 0, i32 0
  %8 = load i32, ptr %7, align 8, !tbaa !31
  %9 = load ptr, ptr %5, align 8, !tbaa !8
  %10 = getelementptr inbounds nuw %struct.bn_mont_ctx_st, ptr %9, i32 0, i32 0
  %11 = load i32, ptr %10, align 8, !tbaa !31
  %12 = icmp ne i32 %8, %11
  br i1 %12, label %13, label %14

13:                                               ; preds = %2
  store i32 0, ptr %3, align 4
  br label %54

14:                                               ; preds = %2
  %15 = load ptr, ptr %4, align 8, !tbaa !8
  %16 = getelementptr inbounds nuw %struct.bn_mont_ctx_st, ptr %15, i32 0, i32 1
  %17 = load ptr, ptr %5, align 8, !tbaa !8
  %18 = getelementptr inbounds nuw %struct.bn_mont_ctx_st, ptr %17, i32 0, i32 1
  %19 = call i32 @BN_cmp(ptr noundef %16, ptr noundef %18)
  %20 = icmp ne i32 %19, 0
  br i1 %20, label %21, label %22

21:                                               ; preds = %14
  store i32 0, ptr %3, align 4
  br label %54

22:                                               ; preds = %14
  %23 = load ptr, ptr %4, align 8, !tbaa !8
  %24 = getelementptr inbounds nuw %struct.bn_mont_ctx_st, ptr %23, i32 0, i32 5
  %25 = load i32, ptr %24, align 8, !tbaa !30
  %26 = load ptr, ptr %5, align 8, !tbaa !8
  %27 = getelementptr inbounds nuw %struct.bn_mont_ctx_st, ptr %26, i32 0, i32 5
  %28 = load i32, ptr %27, align 8, !tbaa !30
  %29 = icmp ne i32 %25, %28
  br i1 %29, label %30, label %31

30:                                               ; preds = %22
  store i32 0, ptr %3, align 4
  br label %54

31:                                               ; preds = %22
  %32 = load ptr, ptr %4, align 8, !tbaa !8
  %33 = getelementptr inbounds nuw %struct.bn_mont_ctx_st, ptr %32, i32 0, i32 4
  %34 = getelementptr inbounds [2 x i64], ptr %33, i64 0, i64 0
  %35 = load i64, ptr %34, align 8, !tbaa !24
  %36 = load ptr, ptr %5, align 8, !tbaa !8
  %37 = getelementptr inbounds nuw %struct.bn_mont_ctx_st, ptr %36, i32 0, i32 4
  %38 = getelementptr inbounds [2 x i64], ptr %37, i64 0, i64 0
  %39 = load i64, ptr %38, align 8, !tbaa !24
  %40 = icmp ne i64 %35, %39
  br i1 %40, label %41, label %42

41:                                               ; preds = %31
  store i32 0, ptr %3, align 4
  br label %54

42:                                               ; preds = %31
  %43 = load ptr, ptr %4, align 8, !tbaa !8
  %44 = getelementptr inbounds nuw %struct.bn_mont_ctx_st, ptr %43, i32 0, i32 4
  %45 = getelementptr inbounds [2 x i64], ptr %44, i64 0, i64 1
  %46 = load i64, ptr %45, align 8, !tbaa !24
  %47 = load ptr, ptr %5, align 8, !tbaa !8
  %48 = getelementptr inbounds nuw %struct.bn_mont_ctx_st, ptr %47, i32 0, i32 4
  %49 = getelementptr inbounds [2 x i64], ptr %48, i64 0, i64 1
  %50 = load i64, ptr %49, align 8, !tbaa !24
  %51 = icmp ne i64 %46, %50
  br i1 %51, label %52, label %53

52:                                               ; preds = %42
  store i32 0, ptr %3, align 4
  br label %54

53:                                               ; preds = %42
  store i32 1, ptr %3, align 4
  br label %54

54:                                               ; preds = %53, %52, %41, %30, %21, %13
  %55 = load i32, ptr %3, align 4
  ret i32 %55
}