; Function Attrs: nounwind uwtable
define range(i32 0, 2) i32 @ossl_bn_mont_ctx_eq(ptr noundef %0, ptr noundef %1) local_unnamed_addr #0 {
  %3 = load i32, ptr %0, align 8, !tbaa !21
  %4 = load i32, ptr %1, align 8, !tbaa !21
  %.not = icmp eq i32 %3, %4
  br i1 %.not, label %5, label %24

5:                                                ; preds = %2
  %6 = getelementptr inbounds nuw i8, ptr %0, i64 8
  %7 = getelementptr inbounds nuw i8, ptr %1, i64 8
  %8 = tail call i32 @BN_cmp(ptr noundef nonnull %6, ptr noundef nonnull %7) #5
  %.not10 = icmp eq i32 %8, 0
  br i1 %.not10, label %9, label %24

9:                                                ; preds = %5
  %10 = getelementptr inbounds nuw i8, ptr %0, i64 96
  %11 = load i32, ptr %10, align 8, !tbaa !22
  %12 = getelementptr inbounds nuw i8, ptr %1, i64 96
  %13 = load i32, ptr %12, align 8, !tbaa !22
  %.not11 = icmp eq i32 %11, %13
  br i1 %.not11, label %14, label %24

14:                                               ; preds = %9
  %15 = getelementptr inbounds nuw i8, ptr %0, i64 80
  %16 = load i64, ptr %15, align 8, !tbaa !15
  %17 = getelementptr inbounds nuw i8, ptr %1, i64 80
  %18 = load i64, ptr %17, align 8, !tbaa !15
  %.not12 = icmp eq i64 %16, %18
  br i1 %.not12, label %19, label %24

19:                                               ; preds = %14
  %20 = getelementptr inbounds nuw i8, ptr %0, i64 88
  %21 = load i64, ptr %20, align 8, !tbaa !15
  %22 = getelementptr inbounds nuw i8, ptr %1, i64 88
  %23 = load i64, ptr %22, align 8, !tbaa !15
  %.not13 = icmp eq i64 %21, %23
  %. = zext i1 %.not13 to i32
  br label %24

24:                                               ; preds = %19, %14, %9, %5, %2
  %.0 = phi i32 [ 0, %2 ], [ 0, %5 ], [ 0, %9 ], [ 0, %14 ], [ %., %19 ]
  ret i32 %.0
}